; Function Attrs: nounwind uwtable
define range(i32 -128, 128) i32 @glfwGetKey(ptr noundef captures(none) %0, i32 noundef %1) local_unnamed_addr #0 {
  %3 = load i32, ptr @_glfw, align 8, !tbaa !170
  %.not = icmp eq i32 %3, 0
  br i1 %.not, label %4, label %5

4:                                                ; preds = %2
  tail call void (i32, ptr, ...) @_glfwInputError(i32 noundef 65537, ptr noundef null) #12
  br label %17

5:                                                ; preds = %2
  %6 = add i32 %1, -349
  %or.cond = icmp ult i32 %6, -317
  br i1 %or.cond, label %7, label %8

7:                                                ; preds = %5
  tail call void (i32, ptr, ...) @_glfwInputError(i32 noundef 65539, ptr noundef nonnull @.str.398, i32 noundef %1) #12
  br label %17

8:                                                ; preds = %5
  %9 = getelementptr inbounds nuw i8, ptr %0, i64 152
  %10 = zext nneg i32 %1 to i64
  %11 = getelementptr inbounds nuw [349 x i8], ptr %9, i64 0, i64 %10
  %12 = load i8, ptr %11, align 1, !tbaa !3
  %13 = icmp eq i8 %12, 3
  br i1 %13, label %14, label %15

14:                                               ; preds = %8
  store i8 0, ptr %11, align 1, !tbaa !3
  br label %17

15:                                               ; preds = %8
  %16 = sext i8 %12 to i32
  br label %17

17:                                               ; preds = %15, %14, %7, %4
  %.0 = phi i32 [ 0, %7 ], [ 1, %14 ], [ %16, %15 ], [ 0, %4 ]
  ret i32 %.0
}